EXPORTS
    _Z8sscanf_sPcS_z @1
    _ZN6RR_API10disconnectEv @2
    _ZN6RR_API10getProgramEPci @3
    _ZN6RR_API10getVersionEPc @4
    _ZN6RR_API10moveWindowEii @5
    _ZN6RR_API10showWindowEb @6
    _ZN6RR_API11getVariableEPcS0_i @7
    _ZN6RR_API11loadProgramEPc @8
    _ZN6RR_API11moduleTimerEPci @9
    _ZN6RR_API11readMessageEiPhi @10
    _ZN6RR_API11saveProgramEPc @11
    _ZN6RR_API11setVariableEPcS0_ @12
    _ZN6RR_API12deleteModuleEPci @13
    _ZN6RR_API12getDimensionEPiS0_ @14
    _ZN6RR_API12getParameterEPciS0_S0_i @15
    _ZN6RR_API12getVariablesEPcPS0_ii @16
    _ZN6RR_API12resizeWindowEii @17
    _ZN6RR_API12setParameterEPciS0_S0_ @18
    _ZN6RR_API12setVariablesEPPcS1_i @19
    _ZN6RR_API12toggleModuleEPci @20
    _ZN6RR_API12waitVariableEPcS0_i @21
    _ZN6RR_API13readImageDataEiPhi @22
    _ZN6RR_API14deleteVariableEPc @23
    _ZN6RR_API14maximizeWindowEv @24
    _ZN6RR_API14minimizeWindowEv @25
    _ZN6RR_API14positionWindowEiiii @26
    _ZN6RR_API15getCameraFormatEPiS0_S0_Pc @27
    _ZN6RR_API15setCameraFormatEiiiPc @28
    _ZN6RR_API18parseProperyTagsetEPciS0_PiS1_S1_S1_ @29
    _ZN6RR_API18setCompressedImageEPcPhib @30
    _ZN6RR_API18setCompressedImageEPhib @31
    _ZN6RR_API19getCameraPropertiesEPPcPiS2_S2_S2_i @32
    _ZN6RR_API19setCameraPropertiesEPPcPiS2_i @33
    _ZN6RR_API3runEPc @34
    _ZN6RR_API4openEPci @35
    _ZN6RR_API4readEiPhi @36
    _ZN6RR_API5closeEv @37
    _ZN6RR_API5pauseEv @38
    _ZN6RR_API6escapeEPcS0_i @39
    _ZN6RR_API6resumeEv @40
    _ZN6RR_API7connectEPci @41
    _ZN6RR_API7executeEPc @42
    _ZN6RR_API7loadPPMEPcPhPiS2_i @43
    _ZN6RR_API7savePPMEPcPhii @44
    _ZN6RR_API8getImageEPcPhPiS2_jS0_ @45
    _ZN6RR_API8getImageEPhPiS1_j @46
    _ZN6RR_API8readLineEP6_iobufPh @47
    _ZN6RR_API8setImageEPcPhiibS0_ @48
    _ZN6RR_API8setImageEPhiibPc @49
    _ZN6RR_API8skipDataEii @50
    _ZN6RR_API8unescapeEPc @51
    _ZN6RR_API9getCameraEPci @52
    _ZN6RR_API9loadImageEPcS0_ @53
    _ZN6RR_API9saveImageEPcS0_ @54
    _ZN6RR_API9setCameraEPc @55
    _ZN6RR_API9waitImageEi @56
    _ZN6RR_APIC1Ev @57
    _ZN6RR_APIC2Ev @58
    _ZN6RR_APID1Ev @59
    _ZN6RR_APID2Ev @60
    feof @61
